(dp0
Vdiameter
p1
S'size'
p2
sVbreadth
p3
g2
sVseries
p4
S'list'
p5
sVtrade
p6
S'swap'
p7
sVintensity
p8
g2
sVfile
p9
g5
sVtable
p10
g5
sVcalendar
p11
g5
sVpoll
p12
g5
sVsubstitute
p13
g7
sVinterchange
p14
g7
sVuse
p15
S'help'
p16
sVcapacity
p17
g2
sVservice
p18
g16
sVsupport
p19
g16
sVcomfort
p20
g16
sVcanter
p21
S'run'
p22
sVbandy
p23
g7
sVwipe out
p24
S'delete'
p25
sVadvice
p26
g16
sVvolume
p27
g2
sVbreak
p28
g22
sVrush
p29
g22
sVannul
p30
g25
sVexpunge
p31
g25
sVedit
p32
g25
sVomit
p33
g25
sVswitch
p34
g7
sVrace
p35
g22
sVspurt
p36
g22
s.